; Function Attrs: nounwind uwtable
define ptr @l_Lean_Meta_ArgsPacker_Unary_unpack(ptr noundef %0, ptr noundef %1) local_unnamed_addr #1 {
  %3 = ptrtoint ptr %0 to i64
  %4 = and i64 %3, 1
  %.not = icmp eq i64 %4, 0
  br i1 %.not, label %lean_nat_eq.exit, label %5, !prof !15

5:                                                ; preds = %2
  %6 = icmp eq ptr %0, inttoptr (i64 1 to ptr)
  br i1 %6, label %10, label %8

lean_nat_eq.exit:                                 ; preds = %2
  %7 = tail call zeroext i1 @lean_nat_big_eq(ptr noundef %0, ptr noundef nonnull inttoptr (i64 1 to ptr)) #7
  br i1 %7, label %10, label %8

8:                                                ; preds = %5, %lean_nat_eq.exit
  %9 = tail call ptr @l_Lean_Meta_ArgsPacker_Unary_unpack___lambda__1(ptr noundef %1, ptr noundef %0, ptr nonnull poison)
  br label %21

10:                                               ; preds = %5, %lean_nat_eq.exit
  %11 = ptrtoint ptr %1 to i64
  %12 = and i64 %11, 1
  %.not9 = icmp eq i64 %12, 0
  br i1 %.not9, label %13, label %lean_dec.exit

13:                                               ; preds = %10
  %14 = load i32, ptr %1, align 4, !tbaa !8
  %15 = icmp sgt i32 %14, 1
  br i1 %15, label %16, label %18, !prof !11

16:                                               ; preds = %13
  %17 = add nsw i32 %14, -1
  store i32 %17, ptr %1, align 4, !tbaa !8
  br label %lean_dec.exit

18:                                               ; preds = %13
  %.not.i = icmp eq i32 %14, 0
  br i1 %.not.i, label %lean_dec.exit, label %19

19:                                               ; preds = %18
  tail call void @lean_dec_ref_cold(ptr noundef nonnull %1) #7
  br label %lean_dec.exit

lean_dec.exit:                                    ; preds = %19, %18, %16, %10
  %20 = load ptr, ptr @l_Lean_Meta_ArgsPacker_Unary_unpack___closed__1, align 8, !tbaa !12
  br label %21

21:                                               ; preds = %lean_dec.exit, %8
  %.0 = phi ptr [ %9, %8 ], [ %20, %lean_dec.exit ]
  ret ptr %.0
}